; Function Attrs: mustprogress uwtable
define dso_local void @_ZN13cmCTestLaunchC2EiPKPKcNS_2OpE(ptr noundef nonnull align 8 dereferenceable(732) initializes((0, 48)) %0, i32 noundef %1, ptr noundef %2, i32 noundef %3) unnamed_addr #5 align 2 personality ptr @__gxx_personality_v0 {
  %5 = getelementptr inbounds nuw i8, ptr %0, i64 24
  %6 = getelementptr inbounds nuw i8, ptr %0, i64 56
  tail call void @llvm.memset.p0.i64(ptr noundef nonnull align 8 dereferenceable(48) %0, i8 0, i64 48, i1 false)
  invoke void @_ZN21cmCTestLaunchReporterC1Ev(ptr noundef nonnull align 8 dereferenceable(672) %6)
          to label %7 unwind label %10

7:                                                ; preds = %4
  %8 = invoke noundef zeroext i1 @_ZN13cmCTestLaunch14ParseArgumentsEiPKPKc(ptr noundef nonnull align 8 dereferenceable(732) %0, i32 noundef %1, ptr noundef %2)
          to label %9 unwind label %12

9:                                                ; preds = %7
  br i1 %8, label %14, label %23

10:                                               ; preds = %4
  %11 = landingpad { ptr, i32 }
          cleanup
  br label %24

12:                                               ; preds = %17, %14, %7
  %13 = landingpad { ptr, i32 }
          cleanup
  tail call void @_ZN21cmCTestLaunchReporterD1Ev(ptr noundef nonnull align 8 dereferenceable(672) %6) #23
  br label %24

14:                                               ; preds = %9
  %15 = getelementptr inbounds nuw i8, ptr %0, i64 408
  %16 = invoke noundef nonnull align 8 dereferenceable(24) ptr @_ZNSt6vectorINSt7__cxx1112basic_stringIcSt11char_traitsIcESaIcEEESaIS5_EEaSERKS7_(ptr noundef nonnull align 8 dereferenceable(24) %15, ptr noundef nonnull align 8 dereferenceable(24) %5)
          to label %17 unwind label %12

17:                                               ; preds = %14
  invoke void @_ZN21cmCTestLaunchReporter16ComputeFileNamesEv(ptr noundef nonnull align 8 dereferenceable(672) %6)
          to label %18 unwind label %12

18:                                               ; preds = %17
  %19 = getelementptr inbounds nuw i8, ptr %0, i64 50
  store i8 0, ptr %19, align 2, !tbaa !4
  %20 = getelementptr inbounds nuw i8, ptr %0, i64 48
  store i8 0, ptr %20, align 8, !tbaa !37
  %21 = getelementptr inbounds nuw i8, ptr %0, i64 49
  store i8 0, ptr %21, align 1, !tbaa !38
  %22 = getelementptr inbounds nuw i8, ptr %0, i64 728
  store i32 %3, ptr %22, align 8, !tbaa !39
  br label %23

23:                                               ; preds = %9, %18
  ret void

24:                                               ; preds = %12, %10
  %.pn = phi { ptr, i32 } [ %13, %12 ], [ %11, %10 ]
  tail call void @_ZNSt6vectorINSt7__cxx1112basic_stringIcSt11char_traitsIcESaIcEEESaIS5_EED2Ev(ptr noundef nonnull align 8 dereferenceable(24) %5) #23
  tail call void @_ZNSt6vectorINSt7__cxx1112basic_stringIcSt11char_traitsIcESaIcEEESaIS5_EED2Ev(ptr noundef nonnull align 8 dereferenceable(24) %0) #23
  resume { ptr, i32 } %.pn
}